target datalayout = "e-m:e-p270:32:32-p271:32:32-p272:64:64-i64:64-i128:128-f80:128-n8:16:32:64-S128"
target triple = "x86_64-pc-linux-gnu"

%struct.pm_static_literals_metadata_t = type { ptr, i32, ptr }
%struct.pm_node = type { i16, i16, i32, %struct.pm_location_t }
%struct.pm_location_t = type { ptr, ptr }
%struct.pm_static_literals_t = type { %struct.pm_node_hash_t, %struct.pm_node_hash_t, %struct.pm_node_hash_t, %struct.pm_node_hash_t, %struct.pm_node_hash_t, %struct.pm_node_hash_t, ptr, ptr, ptr, ptr }
%struct.pm_node_hash_t = type { ptr, i32, i32 }

; Function Attrs: nounwind sspstrong uwtable
define hidden ptr @pm_static_literals_add(ptr noundef %0, i32 noundef %1, ptr noundef %2, ptr noundef %3, i1 noundef zeroext %4) #0 {
  %6 = alloca ptr, align 8
  %7 = alloca ptr, align 8
  %8 = alloca i32, align 4
  %9 = alloca ptr, align 8
  %10 = alloca ptr, align 8
  %11 = alloca i8, align 1
  %12 = alloca %struct.pm_static_literals_metadata_t, align 8
  %13 = alloca %struct.pm_static_literals_metadata_t, align 8
  %14 = alloca %struct.pm_static_literals_metadata_t, align 8
  %15 = alloca %struct.pm_static_literals_metadata_t, align 8
  %16 = alloca %struct.pm_static_literals_metadata_t, align 8
  %17 = alloca %struct.pm_static_literals_metadata_t, align 8
  %18 = alloca ptr, align 8
  %19 = alloca ptr, align 8
  %20 = alloca ptr, align 8
  %21 = alloca ptr, align 8
  store ptr %0, ptr %7, align 8, !tbaa !7
  store i32 %1, ptr %8, align 4, !tbaa !11
  store ptr %2, ptr %9, align 8, !tbaa !7
  store ptr %3, ptr %10, align 8, !tbaa !13
  %22 = zext i1 %4 to i8
  store i8 %22, ptr %11, align 1, !tbaa !15
  %23 = load ptr, ptr %10, align 8, !tbaa !13
  %24 = getelementptr inbounds nuw %struct.pm_node, ptr %23, i32 0, i32 0
  %25 = load i16, ptr %24, align 8, !tbaa !17
  %26 = zext i16 %25 to i32
  switch i32 %26, label %165 [
    i32 82, label %27
    i32 138, label %27
    i32 54, label %40
    i32 123, label %53
    i32 68, label %53
    i32 141, label %66
    i32 137, label %66
    i32 125, label %79
    i32 143, label %92
    i32 144, label %105
    i32 51, label %120
    i32 108, label %135
    i32 136, label %150
  ]

27:                                               ; preds = %5, %5
  %28 = load ptr, ptr %9, align 8, !tbaa !7
  %29 = getelementptr inbounds nuw %struct.pm_static_literals_t, ptr %28, i32 0, i32 0
  %30 = getelementptr inbounds nuw %struct.pm_static_literals_metadata_t, ptr %12, i32 0, i32 0
  %31 = load ptr, ptr %7, align 8, !tbaa !7
  store ptr %31, ptr %30, align 8, !tbaa !22
  %32 = getelementptr inbounds nuw %struct.pm_static_literals_metadata_t, ptr %12, i32 0, i32 1
  %33 = load i32, ptr %8, align 4, !tbaa !11
  store i32 %33, ptr %32, align 8, !tbaa !24
  %34 = getelementptr i8, ptr %12, i64 12
  call void @llvm.memset.p0.i64(ptr align 4 %34, i8 0, i64 4, i1 false)
  %35 = getelementptr inbounds nuw %struct.pm_static_literals_metadata_t, ptr %12, i32 0, i32 2
  store ptr null, ptr %35, align 8, !tbaa !25
  %36 = load ptr, ptr %10, align 8, !tbaa !13
  %37 = load i8, ptr %11, align 1, !tbaa !15, !range !26, !noundef !27
  %38 = trunc i8 %37 to i1
  %39 = call ptr @pm_node_hash_insert(ptr noundef %29, ptr noundef %12, ptr noundef %36, i1 noundef zeroext %38, ptr noundef @pm_compare_integer_nodes)
  store ptr %39, ptr %6, align 8
  br label %166

40:                                               ; preds = %5
  %41 = load ptr, ptr %9, align 8, !tbaa !7
  %42 = getelementptr inbounds nuw %struct.pm_static_literals_t, ptr %41, i32 0, i32 1
  %43 = getelementptr inbounds nuw %struct.pm_static_literals_metadata_t, ptr %13, i32 0, i32 0
  %44 = load ptr, ptr %7, align 8, !tbaa !7
  store ptr %44, ptr %43, align 8, !tbaa !22
  %45 = getelementptr inbounds nuw %struct.pm_static_literals_metadata_t, ptr %13, i32 0, i32 1
  %46 = load i32, ptr %8, align 4, !tbaa !11
  store i32 %46, ptr %45, align 8, !tbaa !24
  %47 = getelementptr i8, ptr %13, i64 12
  call void @llvm.memset.p0.i64(ptr align 4 %47, i8 0, i64 4, i1 false)
  %48 = getelementptr inbounds nuw %struct.pm_static_literals_metadata_t, ptr %13, i32 0, i32 2
  store ptr null, ptr %48, align 8, !tbaa !25
  %49 = load ptr, ptr %10, align 8, !tbaa !13
  %50 = load i8, ptr %11, align 1, !tbaa !15, !range !26, !noundef !27
  %51 = trunc i8 %50 to i1
  %52 = call ptr @pm_node_hash_insert(ptr noundef %42, ptr noundef %13, ptr noundef %49, i1 noundef zeroext %51, ptr noundef @pm_compare_float_nodes)
  store ptr %52, ptr %6, align 8
  br label %166

53:                                               ; preds = %5, %5
  %54 = load ptr, ptr %9, align 8, !tbaa !7
  %55 = getelementptr inbounds nuw %struct.pm_static_literals_t, ptr %54, i32 0, i32 2
  %56 = getelementptr inbounds nuw %struct.pm_static_literals_metadata_t, ptr %14, i32 0, i32 0
  %57 = load ptr, ptr %7, align 8, !tbaa !7
  store ptr %57, ptr %56, align 8, !tbaa !22
  %58 = getelementptr inbounds nuw %struct.pm_static_literals_metadata_t, ptr %14, i32 0, i32 1
  %59 = load i32, ptr %8, align 4, !tbaa !11
  store i32 %59, ptr %58, align 8, !tbaa !24
  %60 = getelementptr i8, ptr %14, i64 12
  call void @llvm.memset.p0.i64(ptr align 4 %60, i8 0, i64 4, i1 false)
  %61 = getelementptr inbounds nuw %struct.pm_static_literals_metadata_t, ptr %14, i32 0, i32 2
  store ptr null, ptr %61, align 8, !tbaa !25
  %62 = load ptr, ptr %10, align 8, !tbaa !13
  %63 = load i8, ptr %11, align 1, !tbaa !15, !range !26, !noundef !27
  %64 = trunc i8 %63 to i1
  %65 = call ptr @pm_node_hash_insert(ptr noundef %55, ptr noundef %14, ptr noundef %62, i1 noundef zeroext %64, ptr noundef @pm_compare_number_nodes)
  store ptr %65, ptr %6, align 8
  br label %166

66:                                               ; preds = %5, %5
  %67 = load ptr, ptr %9, align 8, !tbaa !7
  %68 = getelementptr inbounds nuw %struct.pm_static_literals_t, ptr %67, i32 0, i32 3
  %69 = getelementptr inbounds nuw %struct.pm_static_literals_metadata_t, ptr %15, i32 0, i32 0
  %70 = load ptr, ptr %7, align 8, !tbaa !7
  store ptr %70, ptr %69, align 8, !tbaa !22
  %71 = getelementptr inbounds nuw %struct.pm_static_literals_metadata_t, ptr %15, i32 0, i32 1
  %72 = load i32, ptr %8, align 4, !tbaa !11
  store i32 %72, ptr %71, align 8, !tbaa !24
  %73 = getelementptr i8, ptr %15, i64 12
  call void @llvm.memset.p0.i64(ptr align 4 %73, i8 0, i64 4, i1 false)
  %74 = getelementptr inbounds nuw %struct.pm_static_literals_metadata_t, ptr %15, i32 0, i32 2
  store ptr null, ptr %74, align 8, !tbaa !25
  %75 = load ptr, ptr %10, align 8, !tbaa !13
  %76 = load i8, ptr %11, align 1, !tbaa !15, !range !26, !noundef !27
  %77 = trunc i8 %76 to i1
  %78 = call ptr @pm_node_hash_insert(ptr noundef %68, ptr noundef %15, ptr noundef %75, i1 noundef zeroext %77, ptr noundef @pm_compare_string_nodes)
  store ptr %78, ptr %6, align 8
  br label %166

79:                                               ; preds = %5
  %80 = load ptr, ptr %9, align 8, !tbaa !7
  %81 = getelementptr inbounds nuw %struct.pm_static_literals_t, ptr %80, i32 0, i32 4
  %82 = getelementptr inbounds nuw %struct.pm_static_literals_metadata_t, ptr %16, i32 0, i32 0
  %83 = load ptr, ptr %7, align 8, !tbaa !7
  store ptr %83, ptr %82, align 8, !tbaa !22
  %84 = getelementptr inbounds nuw %struct.pm_static_literals_metadata_t, ptr %16, i32 0, i32 1
  %85 = load i32, ptr %8, align 4, !tbaa !11
  store i32 %85, ptr %84, align 8, !tbaa !24
  %86 = getelementptr i8, ptr %16, i64 12
  call void @llvm.memset.p0.i64(ptr align 4 %86, i8 0, i64 4, i1 false)
  %87 = getelementptr inbounds nuw %struct.pm_static_literals_metadata_t, ptr %16, i32 0, i32 2
  store ptr null, ptr %87, align 8, !tbaa !25
  %88 = load ptr, ptr %10, align 8, !tbaa !13
  %89 = load i8, ptr %11, align 1, !tbaa !15, !range !26, !noundef !27
  %90 = trunc i8 %89 to i1
  %91 = call ptr @pm_node_hash_insert(ptr noundef %81, ptr noundef %16, ptr noundef %88, i1 noundef zeroext %90, ptr noundef @pm_compare_regular_expression_nodes)
  store ptr %91, ptr %6, align 8
  br label %166

92:                                               ; preds = %5
  %93 = load ptr, ptr %9, align 8, !tbaa !7
  %94 = getelementptr inbounds nuw %struct.pm_static_literals_t, ptr %93, i32 0, i32 5
  %95 = getelementptr inbounds nuw %struct.pm_static_literals_metadata_t, ptr %17, i32 0, i32 0
  %96 = load ptr, ptr %7, align 8, !tbaa !7
  store ptr %96, ptr %95, align 8, !tbaa !22
  %97 = getelementptr inbounds nuw %struct.pm_static_literals_metadata_t, ptr %17, i32 0, i32 1
  %98 = load i32, ptr %8, align 4, !tbaa !11
  store i32 %98, ptr %97, align 8, !tbaa !24
  %99 = getelementptr i8, ptr %17, i64 12
  call void @llvm.memset.p0.i64(ptr align 4 %99, i8 0, i64 4, i1 false)
  %100 = getelementptr inbounds nuw %struct.pm_static_literals_metadata_t, ptr %17, i32 0, i32 2
  store ptr null, ptr %100, align 8, !tbaa !25
  %101 = load ptr, ptr %10, align 8, !tbaa !13
  %102 = load i8, ptr %11, align 1, !tbaa !15, !range !26, !noundef !27
  %103 = trunc i8 %102 to i1
  %104 = call ptr @pm_node_hash_insert(ptr noundef %94, ptr noundef %17, ptr noundef %101, i1 noundef zeroext %103, ptr noundef @pm_compare_string_nodes)
  store ptr %104, ptr %6, align 8
  br label %166

105:                                              ; preds = %5
  call void @llvm.lifetime.start.p0(i64 8, ptr %18) #9
  %106 = load ptr, ptr %9, align 8, !tbaa !7
  %107 = getelementptr inbounds nuw %struct.pm_static_literals_t, ptr %106, i32 0, i32 6
  %108 = load ptr, ptr %107, align 8, !tbaa !28
  store ptr %108, ptr %18, align 8, !tbaa !13
  %109 = load ptr, ptr %18, align 8, !tbaa !13
  %110 = icmp eq ptr %109, null
  br i1 %110, label %114, label %111

111:                                              ; preds = %105
  %112 = load i8, ptr %11, align 1, !tbaa !15, !range !26, !noundef !27
  %113 = trunc i8 %112 to i1
  br i1 %113, label %114, label %118

114:                                              ; preds = %111, %105
  %115 = load ptr, ptr %10, align 8, !tbaa !13
  %116 = load ptr, ptr %9, align 8, !tbaa !7
  %117 = getelementptr inbounds nuw %struct.pm_static_literals_t, ptr %116, i32 0, i32 6
  store ptr %115, ptr %117, align 8, !tbaa !28
  br label %118

118:                                              ; preds = %114, %111
  %119 = load ptr, ptr %18, align 8, !tbaa !13
  store ptr %119, ptr %6, align 8
  call void @llvm.lifetime.end.p0(i64 8, ptr %18) #9
  br label %166

120:                                              ; preds = %5
  call void @llvm.lifetime.start.p0(i64 8, ptr %19) #9
  %121 = load ptr, ptr %9, align 8, !tbaa !7
  %122 = getelementptr inbounds nuw %struct.pm_static_literals_t, ptr %121, i32 0, i32 7
  %123 = load ptr, ptr %122, align 8, !tbaa !32
  store ptr %123, ptr %19, align 8, !tbaa !13
  %124 = load ptr, ptr %19, align 8, !tbaa !13
  %125 = icmp eq ptr %124, null
  br i1 %125, label %129, label %126

126:                                              ; preds = %120
  %127 = load i8, ptr %11, align 1, !tbaa !15, !range !26, !noundef !27
  %128 = trunc i8 %127 to i1
  br i1 %128, label %129, label %133

129:                                              ; preds = %126, %120
  %130 = load ptr, ptr %10, align 8, !tbaa !13
  %131 = load ptr, ptr %9, align 8, !tbaa !7
  %132 = getelementptr inbounds nuw %struct.pm_static_literals_t, ptr %131, i32 0, i32 7
  store ptr %130, ptr %132, align 8, !tbaa !32
  br label %133

133:                                              ; preds = %129, %126
  %134 = load ptr, ptr %19, align 8, !tbaa !13
  store ptr %134, ptr %6, align 8
  call void @llvm.lifetime.end.p0(i64 8, ptr %19) #9
  br label %166

135:                                              ; preds = %5
  call void @llvm.lifetime.start.p0(i64 8, ptr %20) #9
  %136 = load ptr, ptr %9, align 8, !tbaa !7
  %137 = getelementptr inbounds nuw %struct.pm_static_literals_t, ptr %136, i32 0, i32 8
  %138 = load ptr, ptr %137, align 8, !tbaa !33
  store ptr %138, ptr %20, align 8, !tbaa !13
  %139 = load ptr, ptr %20, align 8, !tbaa !13
  %140 = icmp eq ptr %139, null
  br i1 %140, label %144, label %141

141:                                              ; preds = %135
  %142 = load i8, ptr %11, align 1, !tbaa !15, !range !26, !noundef !27
  %143 = trunc i8 %142 to i1
  br i1 %143, label %144, label %148

144:                                              ; preds = %141, %135
  %145 = load ptr, ptr %10, align 8, !tbaa !13
  %146 = load ptr, ptr %9, align 8, !tbaa !7
  %147 = getelementptr inbounds nuw %struct.pm_static_literals_t, ptr %146, i32 0, i32 8
  store ptr %145, ptr %147, align 8, !tbaa !33
  br label %148

148:                                              ; preds = %144, %141
  %149 = load ptr, ptr %20, align 8, !tbaa !13
  store ptr %149, ptr %6, align 8
  call void @llvm.lifetime.end.p0(i64 8, ptr %20) #9
  br label %166

150:                                              ; preds = %5
  call void @llvm.lifetime.start.p0(i64 8, ptr %21) #9
  %151 = load ptr, ptr %9, align 8, !tbaa !7
  %152 = getelementptr inbounds nuw %struct.pm_static_literals_t, ptr %151, i32 0, i32 9
  %153 = load ptr, ptr %152, align 8, !tbaa !34
  store ptr %153, ptr %21, align 8, !tbaa !13
  %154 = load ptr, ptr %21, align 8, !tbaa !13
  %155 = icmp eq ptr %154, null
  br i1 %155, label %159, label %156

156:                                              ; preds = %150
  %157 = load i8, ptr %11, align 1, !tbaa !15, !range !26, !noundef !27
  %158 = trunc i8 %157 to i1
  br i1 %158, label %159, label %163

159:                                              ; preds = %156, %150
  %160 = load ptr, ptr %10, align 8, !tbaa !13
  %161 = load ptr, ptr %9, align 8, !tbaa !7
  %162 = getelementptr inbounds nuw %struct.pm_static_literals_t, ptr %161, i32 0, i32 9
  store ptr %160, ptr %162, align 8, !tbaa !34
  br label %163

163:                                              ; preds = %159, %156
  %164 = load ptr, ptr %21, align 8, !tbaa !13
  store ptr %164, ptr %6, align 8
  call void @llvm.lifetime.end.p0(i64 8, ptr %21) #9
  br label %166

165:                                              ; preds = %5
  store ptr null, ptr %6, align 8
  br label %166

166:                                              ; preds = %165, %163, %148, %133, %118, %92, %79, %66, %53, %40, %27
  %167 = load ptr, ptr %6, align 8
  ret ptr %167
}