; Function Attrs: nounwind sspstrong uwtable
define hidden ptr @pm_static_literals_add(ptr noundef %0, i32 noundef %1, ptr noundef captures(none) %2, ptr noundef %3, i1 noundef zeroext %4) local_unnamed_addr #0 {
  %6 = alloca %struct.pm_static_literals_metadata_t, align 8
  %7 = alloca %struct.pm_static_literals_metadata_t, align 8
  %8 = alloca %struct.pm_static_literals_metadata_t, align 8
  %9 = alloca %struct.pm_static_literals_metadata_t, align 8
  %10 = alloca %struct.pm_static_literals_metadata_t, align 8
  %11 = alloca %struct.pm_static_literals_metadata_t, align 8
  %12 = load i16, ptr %3, align 8, !tbaa !7
  switch i16 %12, label %pm_node_hash_insert.exit [
    i16 82, label %13
    i16 138, label %13
    i16 54, label %18
    i16 123, label %72
    i16 68, label %72
    i16 141, label %78
    i16 137, label %78
    i16 125, label %84
    i16 143, label %90
    i16 144, label %96
    i16 51, label %101
    i16 108, label %106
    i16 136, label %111
  ]

13:                                               ; preds = %5, %5
  store ptr %0, ptr %6, align 8, !tbaa !16
  %14 = getelementptr inbounds nuw i8, ptr %6, i64 8
  store i32 %1, ptr %14, align 8, !tbaa !18
  %15 = getelementptr inbounds nuw i8, ptr %6, i64 12
  store i32 0, ptr %15, align 4
  %16 = getelementptr inbounds nuw i8, ptr %6, i64 16
  store ptr null, ptr %16, align 8, !tbaa !19
  %17 = call fastcc ptr @pm_node_hash_insert(ptr noundef %2, ptr noundef %6, ptr noundef nonnull %3, i1 noundef zeroext %4, ptr noundef nonnull @pm_compare_integer_nodes)
  br label %pm_node_hash_insert.exit

18:                                               ; preds = %5
  %19 = getelementptr inbounds nuw i8, ptr %2, i64 16
  store ptr %0, ptr %7, align 8, !tbaa !16
  %20 = getelementptr inbounds nuw i8, ptr %7, i64 8
  store i32 %1, ptr %20, align 8, !tbaa !18
  %21 = getelementptr inbounds nuw i8, ptr %7, i64 12
  store i32 0, ptr %21, align 4
  %22 = getelementptr inbounds nuw i8, ptr %7, i64 16
  store ptr null, ptr %22, align 8, !tbaa !19
  %23 = getelementptr inbounds nuw i8, ptr %2, i64 24
  %24 = load i32, ptr %23, align 8, !tbaa !20
  %25 = shl i32 %24, 1
  %26 = getelementptr inbounds nuw i8, ptr %2, i64 28
  %27 = load i32, ptr %26, align 4, !tbaa !23
  %.not.i = icmp ult i32 %25, %27
  br i1 %.not.i, label %._crit_edge73.i, label %28

._crit_edge73.i:                                  ; preds = %18
  %.pre74.i = add i32 %27, -1
  br label %50

28:                                               ; preds = %18
  %29 = icmp eq i32 %27, 0
  %30 = shl i32 %27, 1
  %spec.select.i = select i1 %29, i32 4, i32 %30
  %31 = zext i32 %spec.select.i to i64
  %32 = tail call noalias ptr @calloc(i64 noundef %31, i64 noundef 8) #8
  %33 = icmp eq ptr %32, null
  br i1 %33, label %pm_node_hash_insert.exit, label %34

34:                                               ; preds = %28
  %35 = add i32 %spec.select.i, -1
  br i1 %29, label %._crit_edge.i, label %.lr.ph.i

.lr.ph.i:                                         ; preds = %34, %45
  %36 = phi i32 [ %46, %45 ], [ %27, %34 ]
  %indvars.iv.i = phi i64 [ %indvars.iv.next.i, %45 ], [ 0, %34 ]
  %37 = load ptr, ptr %19, align 8, !tbaa !24
  %38 = getelementptr ptr, ptr %37, i64 %indvars.iv.i
  %39 = load ptr, ptr %38, align 8, !tbaa !25
  %.not56.i = icmp eq ptr %39, null
  br i1 %.not56.i, label %45, label %40

40:                                               ; preds = %.lr.ph.i
  %41 = call fastcc i32 @node_hash(ptr noundef nonnull %7, ptr noundef nonnull %39)
  %42 = and i32 %41, %35
  %43 = zext i32 %42 to i64
  %44 = getelementptr ptr, ptr %32, i64 %43
  store ptr %39, ptr %44, align 8, !tbaa !25
  %.pre.i = load i32, ptr %26, align 4, !tbaa !23
  br label %45

45:                                               ; preds = %40, %.lr.ph.i
  %46 = phi i32 [ %.pre.i, %40 ], [ %36, %.lr.ph.i ]
  %indvars.iv.next.i = add nuw nsw i64 %indvars.iv.i, 1
  %47 = zext i32 %46 to i64
  %48 = icmp samesign ult i64 %indvars.iv.next.i, %47
  br i1 %48, label %.lr.ph.i, label %._crit_edge.i, !llvm.loop !27

._crit_edge.i:                                    ; preds = %45, %34
  %49 = load ptr, ptr %19, align 8, !tbaa !24
  tail call void @free(ptr noundef %49) #9
  store ptr %32, ptr %19, align 8, !tbaa !24
  store i32 %spec.select.i, ptr %26, align 4, !tbaa !23
  br label %50

50:                                               ; preds = %._crit_edge.i, %._crit_edge73.i
  %.pre-phi.i = phi i32 [ %.pre74.i, %._crit_edge73.i ], [ %35, %._crit_edge.i ]
  %51 = call fastcc i32 @node_hash(ptr noundef nonnull %7, ptr noundef nonnull %3)
  %.05060.i = and i32 %51, %.pre-phi.i
  %52 = load ptr, ptr %19, align 8, !tbaa !24
  %53 = zext i32 %.05060.i to i64
  %54 = getelementptr ptr, ptr %52, i64 %53
  %55 = load ptr, ptr %54, align 8, !tbaa !25
  %.not5761.i = icmp eq ptr %55, null
  br i1 %.not5761.i, label %._crit_edge65.thread.i, label %.lr.ph64.i.preheader

.lr.ph64.i.preheader:                             ; preds = %50
  %56 = getelementptr inbounds nuw i8, ptr %3, i64 24
  %57 = load double, ptr %56, align 8, !tbaa !29
  %58 = getelementptr inbounds nuw i8, ptr %55, i64 24
  %59 = load double, ptr %58, align 8, !tbaa !29
  %60 = fcmp ueq double %59, %57
  br i1 %60, label %.loopexit, label %.lr.ph

.lr.ph:                                           ; preds = %.lr.ph64.i.preheader, %.lr.ph64.i
  %.05062.i60 = phi i32 [ %.050.i, %.lr.ph64.i ], [ %.05060.i, %.lr.ph64.i.preheader ]
  %61 = add i32 %.05062.i60, 1
  %.050.i = and i32 %61, %.pre-phi.i
  %62 = zext i32 %.050.i to i64
  %63 = getelementptr ptr, ptr %52, i64 %62
  %64 = load ptr, ptr %63, align 8, !tbaa !25
  %.not57.i = icmp eq ptr %64, null
  br i1 %.not57.i, label %._crit_edge65.thread.i, label %.lr.ph64.i, !llvm.loop !32

.lr.ph64.i:                                       ; preds = %.lr.ph
  %65 = getelementptr inbounds nuw i8, ptr %64, i64 24
  %66 = load double, ptr %65, align 8, !tbaa !29
  %67 = fcmp ueq double %66, %57
  br i1 %67, label %.loopexit, label %.lr.ph, !llvm.loop !32

._crit_edge65.thread.i:                           ; preds = %.lr.ph, %50
  %.lcssa.ph.i = phi i64 [ %53, %50 ], [ %62, %.lr.ph ]
  %68 = getelementptr ptr, ptr %52, i64 %.lcssa.ph.i
  %69 = load i32, ptr %23, align 8, !tbaa !20
  %70 = add i32 %69, 1
  store i32 %70, ptr %23, align 8, !tbaa !20
  store ptr %3, ptr %68, align 8, !tbaa !25
  br label %pm_node_hash_insert.exit

.loopexit:                                        ; preds = %.lr.ph64.i, %.lr.ph64.i.preheader
  %.pre71.pre.i = phi ptr [ %55, %.lr.ph64.i.preheader ], [ %64, %.lr.ph64.i ]
  %.lcssa = phi i64 [ %53, %.lr.ph64.i.preheader ], [ %62, %.lr.ph64.i ]
  br i1 %4, label %71, label %pm_node_hash_insert.exit

71:                                               ; preds = %.loopexit
  %.phi.trans.insert.phi.trans.insert.i = getelementptr ptr, ptr %52, i64 %.lcssa
  store ptr %3, ptr %.phi.trans.insert.phi.trans.insert.i, align 8, !tbaa !25
  br label %pm_node_hash_insert.exit

72:                                               ; preds = %5, %5
  %73 = getelementptr inbounds nuw i8, ptr %2, i64 32
  store ptr %0, ptr %8, align 8, !tbaa !16
  %74 = getelementptr inbounds nuw i8, ptr %8, i64 8
  store i32 %1, ptr %74, align 8, !tbaa !18
  %75 = getelementptr inbounds nuw i8, ptr %8, i64 12
  store i32 0, ptr %75, align 4
  %76 = getelementptr inbounds nuw i8, ptr %8, i64 16
  store ptr null, ptr %76, align 8, !tbaa !19
  %77 = call fastcc ptr @pm_node_hash_insert(ptr noundef nonnull %73, ptr noundef %8, ptr noundef nonnull %3, i1 noundef zeroext %4, ptr noundef nonnull @pm_compare_number_nodes)
  br label %pm_node_hash_insert.exit

78:                                               ; preds = %5, %5
  %79 = getelementptr inbounds nuw i8, ptr %2, i64 48
  store ptr %0, ptr %9, align 8, !tbaa !16
  %80 = getelementptr inbounds nuw i8, ptr %9, i64 8
  store i32 %1, ptr %80, align 8, !tbaa !18
  %81 = getelementptr inbounds nuw i8, ptr %9, i64 12
  store i32 0, ptr %81, align 4
  %82 = getelementptr inbounds nuw i8, ptr %9, i64 16
  store ptr null, ptr %82, align 8, !tbaa !19
  %83 = call fastcc ptr @pm_node_hash_insert(ptr noundef nonnull %79, ptr noundef %9, ptr noundef nonnull %3, i1 noundef zeroext %4, ptr noundef nonnull @pm_compare_string_nodes)
  br label %pm_node_hash_insert.exit

84:                                               ; preds = %5
  %85 = getelementptr inbounds nuw i8, ptr %2, i64 64
  store ptr %0, ptr %10, align 8, !tbaa !16
  %86 = getelementptr inbounds nuw i8, ptr %10, i64 8
  store i32 %1, ptr %86, align 8, !tbaa !18
  %87 = getelementptr inbounds nuw i8, ptr %10, i64 12
  store i32 0, ptr %87, align 4
  %88 = getelementptr inbounds nuw i8, ptr %10, i64 16
  store ptr null, ptr %88, align 8, !tbaa !19
  %89 = call fastcc ptr @pm_node_hash_insert(ptr noundef nonnull %85, ptr noundef %10, ptr noundef nonnull %3, i1 noundef zeroext %4, ptr noundef nonnull @pm_compare_regular_expression_nodes)
  br label %pm_node_hash_insert.exit

90:                                               ; preds = %5
  %91 = getelementptr inbounds nuw i8, ptr %2, i64 80
  store ptr %0, ptr %11, align 8, !tbaa !16
  %92 = getelementptr inbounds nuw i8, ptr %11, i64 8
  store i32 %1, ptr %92, align 8, !tbaa !18
  %93 = getelementptr inbounds nuw i8, ptr %11, i64 12
  store i32 0, ptr %93, align 4
  %94 = getelementptr inbounds nuw i8, ptr %11, i64 16
  store ptr null, ptr %94, align 8, !tbaa !19
  %95 = call fastcc ptr @pm_node_hash_insert(ptr noundef nonnull %91, ptr noundef %11, ptr noundef nonnull %3, i1 noundef zeroext %4, ptr noundef nonnull @pm_compare_string_nodes)
  br label %pm_node_hash_insert.exit

96:                                               ; preds = %5
  %97 = getelementptr inbounds nuw i8, ptr %2, i64 96
  %98 = load ptr, ptr %97, align 8, !tbaa !33
  %99 = icmp eq ptr %98, null
  %brmerge = or i1 %4, %99
  br i1 %brmerge, label %100, label %pm_node_hash_insert.exit

100:                                              ; preds = %96
  store ptr %3, ptr %97, align 8, !tbaa !33
  br label %pm_node_hash_insert.exit

101:                                              ; preds = %5
  %102 = getelementptr inbounds nuw i8, ptr %2, i64 104
  %103 = load ptr, ptr %102, align 8, !tbaa !35
  %104 = icmp eq ptr %103, null
  %brmerge55 = or i1 %4, %104
  br i1 %brmerge55, label %105, label %pm_node_hash_insert.exit

105:                                              ; preds = %101
  store ptr %3, ptr %102, align 8, !tbaa !35
  br label %pm_node_hash_insert.exit

106:                                              ; preds = %5
  %107 = getelementptr inbounds nuw i8, ptr %2, i64 112
  %108 = load ptr, ptr %107, align 8, !tbaa !36
  %109 = icmp eq ptr %108, null
  %brmerge56 = or i1 %4, %109
  br i1 %brmerge56, label %110, label %pm_node_hash_insert.exit

110:                                              ; preds = %106
  store ptr %3, ptr %107, align 8, !tbaa !36
  br label %pm_node_hash_insert.exit

111:                                              ; preds = %5
  %112 = getelementptr inbounds nuw i8, ptr %2, i64 120
  %113 = load ptr, ptr %112, align 8, !tbaa !37
  %114 = icmp eq ptr %113, null
  %brmerge57 = or i1 %4, %114
  br i1 %brmerge57, label %115, label %pm_node_hash_insert.exit

115:                                              ; preds = %111
  store ptr %3, ptr %112, align 8, !tbaa !37
  br label %pm_node_hash_insert.exit

pm_node_hash_insert.exit:                         ; preds = %71, %.loopexit, %._crit_edge65.thread.i, %28, %5, %115, %111, %110, %106, %105, %101, %100, %96, %90, %84, %78, %72, %13
  %.0 = phi ptr [ %95, %90 ], [ %89, %84 ], [ %83, %78 ], [ %77, %72 ], [ %17, %13 ], [ %98, %96 ], [ %98, %100 ], [ %103, %101 ], [ %103, %105 ], [ %108, %106 ], [ %108, %110 ], [ %113, %111 ], [ %113, %115 ], [ null, %5 ], [ %.pre71.pre.i, %.loopexit ], [ %.pre71.pre.i, %71 ], [ null, %._crit_edge65.thread.i ], [ null, %28 ]
  ret ptr %.0
}